; Function Attrs: nounwind uwtable
define internal range(i32 -1, 1) i32 @func_set_qualname(ptr noundef captures(none) %0, ptr noundef %1, ptr readnone captures(none) %2) #0 {
  %4 = icmp eq ptr %1, null
  br i1 %4, label %9, label %5

5:                                                ; preds = %3
  %6 = getelementptr i8, ptr %1, i64 8
  %.val = load ptr, ptr %6, align 8, !tbaa !130
  %7 = getelementptr i8, ptr %.val, i64 168
  %.val9 = load i64, ptr %7, align 8, !tbaa !131
  %8 = and i64 %.val9, 268435456
  %.not = icmp eq i64 %8, 0
  br i1 %.not, label %9, label %11

9:                                                ; preds = %5, %3
  %10 = load ptr, ptr @PyExc_TypeError, align 8, !tbaa !96
  tail call void @PyErr_SetString(ptr noundef %10, ptr noundef nonnull @.str.49) #8
  br label %Py_XDECREF.exit

11:                                               ; preds = %5
  %12 = getelementptr inbounds nuw i8, ptr %0, i64 40
  %13 = load ptr, ptr %12, align 8, !tbaa !96
  %14 = load i32, ptr %1, align 8, !tbaa !99
  %15 = icmp slt i32 %14, 0
  br i1 %15, label %_Py_NewRef.exit, label %16

16:                                               ; preds = %11
  %17 = add nuw i32 %14, 1
  store i32 %17, ptr %1, align 8, !tbaa !99
  br label %_Py_NewRef.exit

_Py_NewRef.exit:                                  ; preds = %11, %16
  store ptr %1, ptr %12, align 8, !tbaa !96
  %.not.i = icmp eq ptr %13, null
  br i1 %.not.i, label %Py_XDECREF.exit, label %18

18:                                               ; preds = %_Py_NewRef.exit
  %19 = load i32, ptr %13, align 8, !tbaa !99
  %.not.i.i = icmp sgt i32 %19, -1
  br i1 %.not.i.i, label %20, label %Py_XDECREF.exit

20:                                               ; preds = %18
  %21 = add nsw i32 %19, -1
  store i32 %21, ptr %13, align 8, !tbaa !99
  %22 = icmp eq i32 %21, 0
  br i1 %22, label %23, label %Py_XDECREF.exit

23:                                               ; preds = %20
  tail call void @_Py_Dealloc(ptr noundef nonnull %13) #8
  br label %Py_XDECREF.exit

Py_XDECREF.exit:                                  ; preds = %23, %20, %18, %_Py_NewRef.exit, %9
  %.0 = phi i32 [ -1, %9 ], [ 0, %_Py_NewRef.exit ], [ 0, %18 ], [ 0, %20 ], [ 0, %23 ]
  ret i32 %.0
}